target datalayout = "e-m:e-p270:32:32-p271:32:32-p272:64:64-i64:64-i128:128-f80:128-n8:16:32:64-S128"
target triple = "x86_64-pc-linux-gnu"

%struct.mbedtls_ssl_context = type { ptr, i32, i32, i32, i32, i32, ptr, ptr, ptr, ptr, ptr, ptr, ptr, ptr, ptr, ptr, ptr, ptr, ptr, ptr, ptr, ptr, ptr, ptr, ptr, ptr, ptr, ptr, ptr, ptr, ptr, ptr, ptr, i32, i64, i64, i16, i64, i64, i64, i64, i32, i32, i8, i8, i32, i8, ptr, ptr, ptr, ptr, ptr, ptr, ptr, i32, i64, i64, [8 x i8], i16, ptr, ptr, ptr, i64, i32, i64, [12 x i8], [12 x i8], [32 x i8], i8, i8, ptr, ptr, %union.mbedtls_ssl_user_data_t }
%union.mbedtls_ssl_user_data_t = type { i64 }
%struct.mbedtls_ssl_session = type { i8, i8, i8, i32, i64, i32, i64, [32 x i8], [48 x i8], ptr, i32, ptr, i64, i32, i64, i32, i8, i8, [48 x i8], ptr, i64, i32, %struct.mbedtls_ssl_tls13_application_secrets }
%struct.mbedtls_ssl_tls13_application_secrets = type { [64 x i8], [64 x i8], [64 x i8], [64 x i8] }
%struct.mbedtls_ssl_config = type { i32, i32, i8, i8, i8, i8, i8, i8, i8, i8, i8, i8, i16, i8, i8, i8, ptr, i32, ptr, ptr, ptr, ptr, ptr, ptr, ptr, ptr, ptr, ptr, ptr, ptr, ptr, ptr, ptr, ptr, ptr, ptr, ptr, i64, ptr, ptr, ptr, ptr, ptr, ptr, ptr, ptr, %struct.mbedtls_mpi, %struct.mbedtls_mpi, ptr, i64, ptr, i64, ptr, i32, i32, i32, i32, [8 x i8], i32, i32, %union.mbedtls_ssl_user_data_t, ptr, ptr }
%struct.mbedtls_mpi = type { ptr, i16, i16 }
%struct.mbedtls_ssl_handshake_params = type { i8, i8, i8, i8, i8, i32, i8, i8, i8, i8, ptr, ptr, ptr, ptr, ptr, i8, i8, i8, i8, i16, i16, [20 x i16], ptr, ptr, %struct.mbedtls_dhm_context, %struct.mbedtls_ecdh_context, i16, i64, i32, i8, [1024 x i8], i64, ptr, ptr, i64, i16, ptr, ptr, ptr, ptr, %struct.anon, ptr, i16, i8, i32, i32, i32, ptr, ptr, ptr, i32, ptr, [8 x i8], i8, [32 x i8], i8, i16, %struct.mbedtls_md_context_t, %struct.mbedtls_md_context_t, i16, i8, %union.anon.1, [64 x i8], [1076 x i8], i64, i32, i32, i8, ptr, ptr, %union.anon.4, %struct.mbedtls_ssl_tls13_handshake_secrets, ptr, i64, ptr }
%struct.mbedtls_dhm_context = type { %struct.mbedtls_mpi, %struct.mbedtls_mpi, %struct.mbedtls_mpi, %struct.mbedtls_mpi, %struct.mbedtls_mpi, %struct.mbedtls_mpi, %struct.mbedtls_mpi, %struct.mbedtls_mpi, %struct.mbedtls_mpi, %struct.mbedtls_mpi }
%struct.mbedtls_ecdh_context = type { i8, i32, i32, %union.anon }
%union.anon = type { %struct.mbedtls_ecdh_context_mbed }
%struct.mbedtls_ecdh_context_mbed = type { %struct.mbedtls_ecp_group, %struct.mbedtls_mpi, %struct.mbedtls_ecp_point, %struct.mbedtls_ecp_point, %struct.mbedtls_mpi }
%struct.mbedtls_ecp_group = type { i32, %struct.mbedtls_mpi, %struct.mbedtls_mpi, %struct.mbedtls_mpi, %struct.mbedtls_ecp_point, %struct.mbedtls_mpi, i64, i64, i32, ptr, ptr, ptr, ptr, ptr, i64 }
%struct.mbedtls_ecp_point = type { %struct.mbedtls_mpi, %struct.mbedtls_mpi, %struct.mbedtls_mpi }
%struct.anon = type { i64, i8, [4 x %struct.mbedtls_ssl_hs_buffer], %struct.anon.0 }
%struct.mbedtls_ssl_hs_buffer = type { i8, ptr, i64 }
%struct.anon.0 = type { ptr, i64, i32 }
%struct.mbedtls_md_context_t = type { ptr, ptr, ptr }
%union.anon.1 = type { %struct.anon.2 }
%struct.anon.2 = type { i8, [64 x i8], i64 }
%union.anon.4 = type { [64 x i8] }
%struct.mbedtls_ssl_tls13_handshake_secrets = type { [64 x i8], [64 x i8] }
%struct.mbedtls_ssl_ciphersuite_t = type { i32, ptr, i8, i8, i8, i8, i16, i16 }

@.str = private unnamed_addr constant [130 x i8] c"generated/home/dtcxzyw/WorkSpace/Projects/compilers/llvm-opt-benchmark/bench/lief/bench_build/mbed_src/library/ssl_tls13_client.c\00", align 1
@.str.5 = private unnamed_addr constant [38 x i8] c"client hello, adding PSK binder list.\00", align 1
@.str.6 = private unnamed_addr constant [23 x i8] c"pre_shared_key binders\00", align 1

; Function Attrs: inlinehint nounwind uwtable
define internal i32 @mbedtls_md_psa_alg_from_type(i32 noundef %0) #3 {
  %2 = alloca i32, align 4
  store i32 %0, ptr %2, align 4, !tbaa !12
  %3 = load i32, ptr %2, align 4, !tbaa !12
  %4 = or i32 33554432, %3
  ret i32 %4
}

; Function Attrs: inlinehint nounwind uwtable
define internal i32 @mbedtls_ssl_conf_tls13_is_kex_mode_enabled(ptr noundef %0, i32 noundef %1) #3 {
  %3 = alloca ptr, align 8
  %4 = alloca i32, align 4
  store ptr %0, ptr %3, align 8, !tbaa !3
  store i32 %1, ptr %4, align 4, !tbaa !12
  %5 = load ptr, ptr %3, align 8, !tbaa !3
  %6 = getelementptr inbounds nuw %struct.mbedtls_ssl_context, ptr %5, i32 0, i32 0
  %7 = load ptr, ptr %6, align 8, !tbaa !29
  %8 = getelementptr inbounds nuw %struct.mbedtls_ssl_config, ptr %7, i32 0, i32 17
  %9 = load i32, ptr %8, align 8, !tbaa !78
  %10 = load i32, ptr %4, align 4, !tbaa !12
  %11 = and i32 %9, %10
  %12 = icmp ne i32 %11, 0
  %13 = zext i1 %12 to i32
  ret i32 %13
}

; Function Attrs: inlinehint nounwind uwtable
define internal i32 @mbedtls_ssl_tls13_session_get_ticket_flags(ptr noundef %0, i32 noundef %1) #3 {
  %3 = alloca ptr, align 8
  %4 = alloca i32, align 4
  store ptr %0, ptr %3, align 8, !tbaa !23
  store i32 %1, ptr %4, align 4, !tbaa !12
  %5 = load ptr, ptr %3, align 8, !tbaa !23
  %6 = getelementptr inbounds nuw %struct.mbedtls_ssl_session, ptr %5, i32 0, i32 16
  %7 = load i8, ptr %6, align 4, !tbaa !79
  %8 = zext i8 %7 to i32
  %9 = load i32, ptr %4, align 4, !tbaa !12
  %10 = and i32 %9, 13
  %11 = and i32 %8, %10
  ret i32 %11
}

; Function Attrs: nounwind uwtable
define internal i32 @ssl_tls13_get_ciphersuite_hash_alg(i32 noundef %0) #0 {
  %2 = alloca i32, align 4
  %3 = alloca i32, align 4
  %4 = alloca ptr, align 8
  %5 = alloca i32, align 4
  store i32 %0, ptr %3, align 4, !tbaa !12
  call void @llvm.lifetime.start.p0(i64 8, ptr %4) #10
  store ptr null, ptr %4, align 8, !tbaa !80
  %6 = load i32, ptr %3, align 4, !tbaa !12
  %7 = call ptr @mbedtls_ssl_ciphersuite_from_id(i32 noundef %6)
  store ptr %7, ptr %4, align 8, !tbaa !80
  %8 = load ptr, ptr %4, align 8, !tbaa !80
  %9 = icmp ne ptr %8, null
  br i1 %9, label %10, label %16

10:                                               ; preds = %1
  %11 = load ptr, ptr %4, align 8, !tbaa !80
  %12 = getelementptr inbounds nuw %struct.mbedtls_ssl_ciphersuite_t, ptr %11, i32 0, i32 3
  %13 = load i8, ptr %12, align 1, !tbaa !81
  %14 = zext i8 %13 to i32
  %15 = call i32 @mbedtls_md_psa_alg_from_type(i32 noundef %14)
  store i32 %15, ptr %2, align 4
  store i32 1, ptr %5, align 4
  br label %17

16:                                               ; preds = %1
  store i32 0, ptr %2, align 4
  store i32 1, ptr %5, align 4
  br label %17

17:                                               ; preds = %16, %10
  call void @llvm.lifetime.end.p0(i64 8, ptr %4) #10
  %18 = load i32, ptr %2, align 4
  ret i32 %18
}

; Function Attrs: nounwind uwtable
define internal i32 @ssl_tls13_has_configured_ticket(ptr noundef %0) #0 {
  %2 = alloca ptr, align 8
  %3 = alloca ptr, align 8
  store ptr %0, ptr %2, align 8, !tbaa !3
  call void @llvm.lifetime.start.p0(i64 8, ptr %3) #10
  %4 = load ptr, ptr %2, align 8, !tbaa !3
  %5 = getelementptr inbounds nuw %struct.mbedtls_ssl_context, ptr %4, i32 0, i32 15
  %6 = load ptr, ptr %5, align 8, !tbaa !16
  store ptr %6, ptr %3, align 8, !tbaa !23
  %7 = load ptr, ptr %2, align 8, !tbaa !3
  %8 = getelementptr inbounds nuw %struct.mbedtls_ssl_context, ptr %7, i32 0, i32 16
  %9 = load ptr, ptr %8, align 8, !tbaa !52
  %10 = getelementptr inbounds nuw %struct.mbedtls_ssl_handshake_params, ptr %9, i32 0, i32 0
  %11 = load i8, ptr %10, align 8, !tbaa !77
  %12 = zext i8 %11 to i32
  %13 = icmp ne i32 %12, 0
  br i1 %13, label %14, label %28

14:                                               ; preds = %1
  %15 = load ptr, ptr %3, align 8, !tbaa !23
  %16 = icmp ne ptr %15, null
  br i1 %16, label %17, label %28

17:                                               ; preds = %14
  %18 = load ptr, ptr %3, align 8, !tbaa !23
  %19 = getelementptr inbounds nuw %struct.mbedtls_ssl_session, ptr %18, i32 0, i32 11
  %20 = load ptr, ptr %19, align 8, !tbaa !36
  %21 = icmp ne ptr %20, null
  br i1 %21, label %22, label %28

22:                                               ; preds = %17
  %23 = load ptr, ptr %2, align 8, !tbaa !3
  %24 = load ptr, ptr %3, align 8, !tbaa !23
  %25 = call i32 @mbedtls_ssl_tls13_session_get_ticket_flags(ptr noundef %24, i32 noundef 5)
  %26 = call i32 @mbedtls_ssl_conf_tls13_is_kex_mode_enabled(ptr noundef %23, i32 noundef %25)
  %27 = icmp ne i32 %26, 0
  br label %28

28:                                               ; preds = %22, %17, %14, %1
  %29 = phi i1 [ false, %17 ], [ false, %14 ], [ false, %1 ], [ %27, %22 ]
  %30 = zext i1 %29 to i32
  call void @llvm.lifetime.end.p0(i64 8, ptr %3) #10
  ret i32 %30
}

; Function Attrs: inlinehint nounwind uwtable
define internal void @mbedtls_ssl_tls13_set_hs_sent_ext_mask(ptr noundef %0, i32 noundef %1) #3 {
  %3 = alloca ptr, align 8
  %4 = alloca i32, align 4
  store ptr %0, ptr %3, align 8, !tbaa !3
  store i32 %1, ptr %4, align 4, !tbaa !12
  %5 = load i32, ptr %4, align 4, !tbaa !12
  %6 = call i32 @mbedtls_ssl_get_extension_mask(i32 noundef %5)
  %7 = load ptr, ptr %3, align 8, !tbaa !3
  %8 = getelementptr inbounds nuw %struct.mbedtls_ssl_context, ptr %7, i32 0, i32 16
  %9 = load ptr, ptr %8, align 8, !tbaa !52
  %10 = getelementptr inbounds nuw %struct.mbedtls_ssl_handshake_params, ptr %9, i32 0, i32 65
  %11 = load i32, ptr %10, align 8, !tbaa !53
  %12 = or i32 %11, %6
  store i32 %12, ptr %10, align 8, !tbaa !53
  ret void
}

; Function Attrs: alwaysinline nounwind uwtable
define internal void @mbedtls_put_unaligned_uint16(ptr noundef %0, i16 noundef zeroext %1) #4 {
  %3 = alloca ptr, align 8
  %4 = alloca i16, align 2
  store ptr %0, ptr %3, align 8, !tbaa !46
  store i16 %1, ptr %4, align 2, !tbaa !47
  %5 = load ptr, ptr %3, align 8, !tbaa !46
  call void @llvm.memcpy.p0.p0.i64(ptr align 1 %5, ptr align 2 %4, i64 2, i1 false)
  ret void
}

; Function Attrs: nounwind uwtable
define internal i32 @ssl_tls13_psk_get_psk(ptr noundef %0, ptr noundef %1, ptr noundef %2, ptr noundef %3) #0 {
  %5 = alloca i32, align 4
  %6 = alloca ptr, align 8
  %7 = alloca ptr, align 8
  %8 = alloca ptr, align 8
  %9 = alloca ptr, align 8
  store ptr %0, ptr %6, align 8, !tbaa !3
  store ptr %1, ptr %7, align 8, !tbaa !30
  store ptr %2, ptr %8, align 8, !tbaa !32
  store ptr %3, ptr %9, align 8, !tbaa !10
  %10 = load ptr, ptr %6, align 8, !tbaa !3
  %11 = getelementptr inbounds nuw %struct.mbedtls_ssl_context, ptr %10, i32 0, i32 0
  %12 = load ptr, ptr %11, align 8, !tbaa !29
  %13 = call i32 @mbedtls_ssl_conf_has_static_psk(ptr noundef %12)
  %14 = icmp ne i32 %13, 0
  br i1 %14, label %16, label %15

15:                                               ; preds = %4
  store i32 -1, ptr %5, align 4
  br label %30

16:                                               ; preds = %4
  %17 = load ptr, ptr %7, align 8, !tbaa !30
  store i32 33554441, ptr %17, align 4, !tbaa !12
  %18 = load ptr, ptr %6, align 8, !tbaa !3
  %19 = getelementptr inbounds nuw %struct.mbedtls_ssl_context, ptr %18, i32 0, i32 0
  %20 = load ptr, ptr %19, align 8, !tbaa !29
  %21 = getelementptr inbounds nuw %struct.mbedtls_ssl_config, ptr %20, i32 0, i32 48
  %22 = load ptr, ptr %21, align 8, !tbaa !50
  %23 = load ptr, ptr %8, align 8, !tbaa !32
  store ptr %22, ptr %23, align 8, !tbaa !8
  %24 = load ptr, ptr %6, align 8, !tbaa !3
  %25 = getelementptr inbounds nuw %struct.mbedtls_ssl_context, ptr %24, i32 0, i32 0
  %26 = load ptr, ptr %25, align 8, !tbaa !29
  %27 = getelementptr inbounds nuw %struct.mbedtls_ssl_config, ptr %26, i32 0, i32 49
  %28 = load i64, ptr %27, align 8, !tbaa !51
  %29 = load ptr, ptr %9, align 8, !tbaa !10
  store i64 %28, ptr %29, align 8, !tbaa !14
  store i32 0, ptr %5, align 4
  br label %30

30:                                               ; preds = %16, %15
  %31 = load i32, ptr %5, align 4
  ret i32 %31
}

; Function Attrs: nounwind uwtable
define internal i32 @ssl_tls13_ticket_get_psk(ptr noundef %0, ptr noundef %1, ptr noundef %2, ptr noundef %3) #0 {
  %5 = alloca i32, align 4
  %6 = alloca ptr, align 8
  %7 = alloca ptr, align 8
  %8 = alloca ptr, align 8
  %9 = alloca ptr, align 8
  %10 = alloca ptr, align 8
  %11 = alloca i32, align 4
  store ptr %0, ptr %6, align 8, !tbaa !3
  store ptr %1, ptr %7, align 8, !tbaa !30
  store ptr %2, ptr %8, align 8, !tbaa !32
  store ptr %3, ptr %9, align 8, !tbaa !10
  call void @llvm.lifetime.start.p0(i64 8, ptr %10) #10
  %12 = load ptr, ptr %6, align 8, !tbaa !3
  %13 = getelementptr inbounds nuw %struct.mbedtls_ssl_context, ptr %12, i32 0, i32 15
  %14 = load ptr, ptr %13, align 8, !tbaa !16
  store ptr %14, ptr %10, align 8, !tbaa !23
  %15 = load ptr, ptr %6, align 8, !tbaa !3
  %16 = call i32 @ssl_tls13_has_configured_ticket(ptr noundef %15)
  %17 = icmp ne i32 %16, 0
  br i1 %17, label %19, label %18

18:                                               ; preds = %4
  store i32 -1, ptr %5, align 4
  store i32 1, ptr %11, align 4
  br label %34

19:                                               ; preds = %4
  %20 = load ptr, ptr %10, align 8, !tbaa !23
  %21 = getelementptr inbounds nuw %struct.mbedtls_ssl_session, ptr %20, i32 0, i32 5
  %22 = load i32, ptr %21, align 8, !tbaa !35
  %23 = call i32 @ssl_tls13_get_ciphersuite_hash_alg(i32 noundef %22)
  %24 = load ptr, ptr %7, align 8, !tbaa !30
  store i32 %23, ptr %24, align 4, !tbaa !12
  %25 = load ptr, ptr %10, align 8, !tbaa !23
  %26 = getelementptr inbounds nuw %struct.mbedtls_ssl_session, ptr %25, i32 0, i32 18
  %27 = getelementptr inbounds [48 x i8], ptr %26, i64 0, i64 0
  %28 = load ptr, ptr %8, align 8, !tbaa !32
  store ptr %27, ptr %28, align 8, !tbaa !8
  %29 = load ptr, ptr %10, align 8, !tbaa !23
  %30 = getelementptr inbounds nuw %struct.mbedtls_ssl_session, ptr %29, i32 0, i32 17
  %31 = load i8, ptr %30, align 1, !tbaa !48
  %32 = zext i8 %31 to i64
  %33 = load ptr, ptr %9, align 8, !tbaa !10
  store i64 %32, ptr %33, align 8, !tbaa !14
  store i32 0, ptr %5, align 4
  store i32 1, ptr %11, align 4
  br label %34

34:                                               ; preds = %19, %18
  call void @llvm.lifetime.end.p0(i64 8, ptr %10) #10
  %35 = load i32, ptr %5, align 4
  ret i32 %35
}

; Function Attrs: inlinehint nounwind uwtable
define internal i32 @mbedtls_ssl_chk_buf_ptr(ptr noundef %0, ptr noundef %1, i64 noundef %2) #3 {
  %4 = alloca ptr, align 8
  %5 = alloca ptr, align 8
  %6 = alloca i64, align 8
  store ptr %0, ptr %4, align 8, !tbaa !8
  store ptr %1, ptr %5, align 8, !tbaa !8
  store i64 %2, ptr %6, align 8, !tbaa !14
  %7 = load ptr, ptr %4, align 8, !tbaa !8
  %8 = load ptr, ptr %5, align 8, !tbaa !8
  %9 = icmp ugt ptr %7, %8
  br i1 %9, label %18, label %10

10:                                               ; preds = %3
  %11 = load i64, ptr %6, align 8, !tbaa !14
  %12 = load ptr, ptr %5, align 8, !tbaa !8
  %13 = load ptr, ptr %4, align 8, !tbaa !8
  %14 = ptrtoint ptr %12 to i64
  %15 = ptrtoint ptr %13 to i64
  %16 = sub i64 %14, %15
  %17 = icmp ugt i64 %11, %16
  br label %18

18:                                               ; preds = %10, %3
  %19 = phi i1 [ true, %3 ], [ %17, %10 ]
  %20 = zext i1 %19 to i32
  ret i32 %20
}

; Function Attrs: nounwind uwtable
define hidden i32 @mbedtls_ssl_tls13_write_binders_of_pre_shared_key_ext(ptr noundef %0, ptr noundef %1, ptr noundef %2) #0 {
  %4 = alloca i32, align 4
  %5 = alloca ptr, align 8
  %6 = alloca ptr, align 8
  %7 = alloca ptr, align 8
  %8 = alloca i32, align 4
  %9 = alloca ptr, align 8
  %10 = alloca i32, align 4
  %11 = alloca ptr, align 8
  %12 = alloca i64, align 8
  %13 = alloca i64, align 8
  %14 = alloca i32, align 4
  store ptr %0, ptr %5, align 8, !tbaa !3
  store ptr %1, ptr %6, align 8, !tbaa !8
  store ptr %2, ptr %7, align 8, !tbaa !8
  call void @llvm.lifetime.start.p0(i64 4, ptr %8) #10
  store i32 -110, ptr %8, align 4, !tbaa !12
  call void @llvm.lifetime.start.p0(i64 8, ptr %9) #10
  %15 = load ptr, ptr %6, align 8, !tbaa !8
  store ptr %15, ptr %9, align 8, !tbaa !8
  call void @llvm.lifetime.start.p0(i64 4, ptr %10) #10
  store i32 0, ptr %10, align 4, !tbaa !12
  call void @llvm.lifetime.start.p0(i64 8, ptr %11) #10
  call void @llvm.lifetime.start.p0(i64 8, ptr %12) #10
  call void @llvm.lifetime.start.p0(i64 8, ptr %13) #10
  br label %16

16:                                               ; preds = %3
  %17 = load ptr, ptr %9, align 8, !tbaa !8
  %18 = load ptr, ptr %7, align 8, !tbaa !8
  %19 = call i32 @mbedtls_ssl_chk_buf_ptr(ptr noundef %17, ptr noundef %18, i64 noundef 2)
  %20 = icmp ne i32 %19, 0
  br i1 %20, label %21, label %22

21:                                               ; preds = %16
  store i32 -27136, ptr %4, align 4
  store i32 1, ptr %14, align 4
  br label %86

22:                                               ; preds = %16
  br label %23

23:                                               ; preds = %22
  br label %24

24:                                               ; preds = %23
  %25 = load ptr, ptr %9, align 8, !tbaa !8
  %26 = getelementptr inbounds i8, ptr %25, i64 2
  store ptr %26, ptr %9, align 8, !tbaa !8
  %27 = load ptr, ptr %5, align 8, !tbaa !3
  %28 = call i32 @ssl_tls13_ticket_get_psk(ptr noundef %27, ptr noundef %10, ptr noundef %11, ptr noundef %12)
  %29 = icmp eq i32 %28, 0
  br i1 %29, label %30, label %46

30:                                               ; preds = %24
  %31 = load ptr, ptr %5, align 8, !tbaa !3
  %32 = load ptr, ptr %9, align 8, !tbaa !8
  %33 = load ptr, ptr %7, align 8, !tbaa !8
  %34 = load i32, ptr %10, align 4, !tbaa !12
  %35 = load ptr, ptr %11, align 8, !tbaa !8
  %36 = load i64, ptr %12, align 8, !tbaa !14
  %37 = call i32 @ssl_tls13_write_binder(ptr noundef %31, ptr noundef %32, ptr noundef %33, i32 noundef 1, i32 noundef %34, ptr noundef %35, i64 noundef %36, ptr noundef %13)
  store i32 %37, ptr %8, align 4, !tbaa !12
  %38 = load i32, ptr %8, align 4, !tbaa !12
  %39 = icmp ne i32 %38, 0
  br i1 %39, label %40, label %42

40:                                               ; preds = %30
  %41 = load i32, ptr %8, align 4, !tbaa !12
  store i32 %41, ptr %4, align 4
  store i32 1, ptr %14, align 4
  br label %86

42:                                               ; preds = %30
  %43 = load i64, ptr %13, align 8, !tbaa !14
  %44 = load ptr, ptr %9, align 8, !tbaa !8
  %45 = getelementptr inbounds nuw i8, ptr %44, i64 %43
  store ptr %45, ptr %9, align 8, !tbaa !8
  br label %46

46:                                               ; preds = %42, %24
  %47 = load ptr, ptr %5, align 8, !tbaa !3
  %48 = call i32 @ssl_tls13_psk_get_psk(ptr noundef %47, ptr noundef %10, ptr noundef %11, ptr noundef %12)
  %49 = icmp eq i32 %48, 0
  br i1 %49, label %50, label %66

50:                                               ; preds = %46
  %51 = load ptr, ptr %5, align 8, !tbaa !3
  %52 = load ptr, ptr %9, align 8, !tbaa !8
  %53 = load ptr, ptr %7, align 8, !tbaa !8
  %54 = load i32, ptr %10, align 4, !tbaa !12
  %55 = load ptr, ptr %11, align 8, !tbaa !8
  %56 = load i64, ptr %12, align 8, !tbaa !14
  %57 = call i32 @ssl_tls13_write_binder(ptr noundef %51, ptr noundef %52, ptr noundef %53, i32 noundef 0, i32 noundef %54, ptr noundef %55, i64 noundef %56, ptr noundef %13)
  store i32 %57, ptr %8, align 4, !tbaa !12
  %58 = load i32, ptr %8, align 4, !tbaa !12
  %59 = icmp ne i32 %58, 0
  br i1 %59, label %60, label %62

60:                                               ; preds = %50
  %61 = load i32, ptr %8, align 4, !tbaa !12
  store i32 %61, ptr %4, align 4
  store i32 1, ptr %14, align 4
  br label %86

62:                                               ; preds = %50
  %63 = load i64, ptr %13, align 8, !tbaa !14
  %64 = load ptr, ptr %9, align 8, !tbaa !8
  %65 = getelementptr inbounds nuw i8, ptr %64, i64 %63
  store ptr %65, ptr %9, align 8, !tbaa !8
  br label %66

66:                                               ; preds = %62, %46
  %67 = load ptr, ptr %5, align 8, !tbaa !3
  call void (ptr, i32, ptr, i32, ptr, ...) @mbedtls_debug_print_msg(ptr noundef %67, i32 noundef 3, ptr noundef @.str, i32 noundef 1040, ptr noundef @.str.5)
  %68 = load ptr, ptr %6, align 8, !tbaa !8
  %69 = getelementptr inbounds i8, ptr %68, i64 0
  %70 = load ptr, ptr %9, align 8, !tbaa !8
  %71 = load ptr, ptr %6, align 8, !tbaa !8
  %72 = ptrtoint ptr %70 to i64
  %73 = ptrtoint ptr %71 to i64
  %74 = sub i64 %72, %73
  %75 = sub nsw i64 %74, 2
  %76 = trunc i64 %75 to i16
  %77 = call i16 @llvm.bswap.i16(i16 %76)
  call void @mbedtls_put_unaligned_uint16(ptr noundef %69, i16 noundef zeroext %77)
  %78 = load ptr, ptr %5, align 8, !tbaa !3
  %79 = load ptr, ptr %6, align 8, !tbaa !8
  %80 = load ptr, ptr %9, align 8, !tbaa !8
  %81 = load ptr, ptr %6, align 8, !tbaa !8
  %82 = ptrtoint ptr %80 to i64
  %83 = ptrtoint ptr %81 to i64
  %84 = sub i64 %82, %83
  call void @mbedtls_debug_print_buf(ptr noundef %78, i32 noundef 3, ptr noundef @.str, i32 noundef 1047, ptr noundef @.str.6, ptr noundef %79, i64 noundef %84)
  %85 = load ptr, ptr %5, align 8, !tbaa !3
  call void @mbedtls_ssl_tls13_set_hs_sent_ext_mask(ptr noundef %85, i32 noundef 41)
  store i32 0, ptr %4, align 4
  store i32 1, ptr %14, align 4
  br label %86

86:                                               ; preds = %66, %60, %40, %21
  call void @llvm.lifetime.end.p0(i64 8, ptr %13) #10
  call void @llvm.lifetime.end.p0(i64 8, ptr %12) #10
  call void @llvm.lifetime.end.p0(i64 8, ptr %11) #10
  call void @llvm.lifetime.end.p0(i64 4, ptr %10) #10
  call void @llvm.lifetime.end.p0(i64 8, ptr %9) #10
  call void @llvm.lifetime.end.p0(i64 4, ptr %8) #10
  %87 = load i32, ptr %4, align 4
  ret i32 %87
}