; Function Attrs: nounwind uwtable
define hidden i32 @mbedtls_ssl_tls13_write_binders_of_pre_shared_key_ext(ptr noundef %0, ptr noundef %1, ptr noundef %2) local_unnamed_addr #0 {
  %4 = alloca i64, align 8
  call void @llvm.lifetime.start.p0(i64 8, ptr nonnull %4) #12
  %5 = icmp ule ptr %1, %2
  %6 = ptrtoint ptr %2 to i64
  %7 = ptrtoint ptr %1 to i64
  %8 = sub i64 %6, %7
  %9 = icmp ugt i64 %8, 1
  %narrow.i.not = and i1 %5, %9
  br i1 %narrow.i.not, label %10, label %67

10:                                               ; preds = %3
  %11 = getelementptr inbounds nuw i8, ptr %1, i64 2
  %12 = getelementptr inbounds nuw i8, ptr %0, i64 104
  %13 = load ptr, ptr %12, align 8, !tbaa !7
  %14 = getelementptr inbounds nuw i8, ptr %0, i64 112
  %15 = load ptr, ptr %14, align 8, !tbaa !17
  %16 = load i8, ptr %15, align 8, !tbaa !18
  %17 = icmp ne i8 %16, 0
  %18 = icmp ne ptr %13, null
  %or.cond.i.i = select i1 %17, i1 %18, i1 false
  br i1 %or.cond.i.i, label %19, label %ssl_tls13_ticket_get_psk.exit.thread

19:                                               ; preds = %10
  %20 = getelementptr inbounds nuw i8, ptr %13, i64 128
  %21 = load ptr, ptr %20, align 8, !tbaa !35
  %.not.i.i = icmp eq ptr %21, null
  br i1 %.not.i.i, label %ssl_tls13_ticket_get_psk.exit.thread, label %ssl_tls13_has_configured_ticket.exit.i

ssl_tls13_has_configured_ticket.exit.i:           ; preds = %19
  %22 = getelementptr i8, ptr %13, i64 164
  %.val.i.i = load i8, ptr %22, align 4, !tbaa !38
  %23 = and i8 %.val.i.i, 5
  %24 = zext nneg i8 %23 to i32
  %.val7.i.i = load ptr, ptr %0, align 8, !tbaa !39
  %25 = getelementptr i8, ptr %.val7.i.i, i64 32
  %.val7.val.i.i = load i32, ptr %25, align 8, !tbaa !40
  %26 = and i32 %.val7.val.i.i, %24
  %.not10.i = icmp eq i32 %26, 0
  br i1 %.not10.i, label %ssl_tls13_ticket_get_psk.exit.thread, label %27

27:                                               ; preds = %ssl_tls13_has_configured_ticket.exit.i
  %28 = getelementptr inbounds nuw i8, ptr %13, i64 16
  %29 = load i32, ptr %28, align 8, !tbaa !46
  %30 = tail call ptr @mbedtls_ssl_ciphersuite_from_id(i32 noundef %29) #12
  %.not.i8.i = icmp eq ptr %30, null
  br i1 %.not.i8.i, label %36, label %31

31:                                               ; preds = %27
  %32 = getelementptr inbounds nuw i8, ptr %30, i64 17
  %33 = load i8, ptr %32, align 1, !tbaa !47
  %34 = zext i8 %33 to i32
  %35 = or disjoint i32 %34, 33554432
  br label %36

36:                                               ; preds = %31, %27
  %.0.i.i = phi i32 [ %35, %31 ], [ 0, %27 ]
  %37 = getelementptr inbounds nuw i8, ptr %13, i64 166
  %38 = getelementptr inbounds nuw i8, ptr %13, i64 165
  %39 = load i8, ptr %38, align 1, !tbaa !54
  %40 = zext i8 %39 to i64
  %41 = call fastcc i32 @ssl_tls13_write_binder(ptr noundef nonnull %0, ptr noundef nonnull %11, ptr noundef %2, i32 noundef 1, i32 noundef %.0.i.i, ptr noundef nonnull %37, i64 noundef %40, ptr noundef %4)
  %.not30 = icmp eq i32 %41, 0
  br i1 %.not30, label %42, label %67

42:                                               ; preds = %36
  %43 = load i64, ptr %4, align 8, !tbaa !3
  %44 = getelementptr inbounds nuw i8, ptr %11, i64 %43
  br label %ssl_tls13_ticket_get_psk.exit.thread

ssl_tls13_ticket_get_psk.exit.thread:             ; preds = %10, %19, %ssl_tls13_has_configured_ticket.exit.i, %42
  %.0 = phi ptr [ %44, %42 ], [ %11, %ssl_tls13_has_configured_ticket.exit.i ], [ %11, %19 ], [ %11, %10 ]
  %45 = load ptr, ptr %0, align 8, !tbaa !39
  %46 = tail call i32 @mbedtls_ssl_conf_has_static_psk(ptr noundef %45) #12
  %.not.i = icmp eq i32 %46, 0
  br i1 %.not.i, label %ssl_tls13_psk_get_psk.exit, label %47

47:                                               ; preds = %ssl_tls13_ticket_get_psk.exit.thread
  %48 = load ptr, ptr %0, align 8, !tbaa !39
  %49 = getelementptr inbounds nuw i8, ptr %48, i64 296
  %50 = load ptr, ptr %49, align 8, !tbaa !55
  %51 = getelementptr inbounds nuw i8, ptr %48, i64 304
  %52 = load i64, ptr %51, align 8, !tbaa !56
  %53 = call fastcc i32 @ssl_tls13_write_binder(ptr noundef nonnull %0, ptr noundef nonnull %.0, ptr noundef %2, i32 noundef 0, i32 noundef 33554441, ptr noundef %50, i64 noundef %52, ptr noundef %4)
  %.not31 = icmp eq i32 %53, 0
  br i1 %.not31, label %54, label %67

54:                                               ; preds = %47
  %55 = load i64, ptr %4, align 8, !tbaa !3
  %56 = getelementptr inbounds nuw i8, ptr %.0, i64 %55
  br label %ssl_tls13_psk_get_psk.exit

ssl_tls13_psk_get_psk.exit:                       ; preds = %ssl_tls13_ticket_get_psk.exit.thread, %54
  %.1 = phi ptr [ %56, %54 ], [ %.0, %ssl_tls13_ticket_get_psk.exit.thread ]
  tail call void (ptr, i32, ptr, i32, ptr, ...) @mbedtls_debug_print_msg(ptr noundef nonnull %0, i32 noundef 3, ptr noundef nonnull @.str, i32 noundef 1040, ptr noundef nonnull @.str.5) #12
  %57 = ptrtoint ptr %.1 to i64
  %58 = sub i64 %57, %7
  %59 = trunc i64 %58 to i16
  %60 = add i16 %59, -2
  %61 = tail call i16 @llvm.bswap.i16(i16 %60)
  store i16 %61, ptr %1, align 1
  tail call void @mbedtls_debug_print_buf(ptr noundef nonnull %0, i32 noundef 3, ptr noundef nonnull @.str, i32 noundef 1047, ptr noundef nonnull @.str.6, ptr noundef nonnull %1, i64 noundef %58) #12
  %62 = tail call i32 @mbedtls_ssl_get_extension_mask(i32 noundef 41) #12
  %63 = load ptr, ptr %14, align 8, !tbaa !17
  %64 = getelementptr inbounds nuw i8, ptr %63, i64 3272
  %65 = load i32, ptr %64, align 8, !tbaa !57
  %66 = or i32 %65, %62
  store i32 %66, ptr %64, align 8, !tbaa !57
  br label %67

67:                                               ; preds = %47, %36, %3, %ssl_tls13_psk_get_psk.exit
  %.027 = phi i32 [ 0, %ssl_tls13_psk_get_psk.exit ], [ -27136, %3 ], [ %41, %36 ], [ %53, %47 ]
  call void @llvm.lifetime.end.p0(i64 8, ptr nonnull %4) #12
  ret i32 %.027
}